; Function Attrs: mustprogress nounwind uwtable
define dso_local void @_ZN4node4quic8Endpoint15CloseGracefullyEv(ptr noundef nonnull align 8 dereferenceable(1520) %this) local_unnamed_addr #3 align 2 {
entry:
  %impl_.i.i = getelementptr inbounds i8, ptr %this, i64 440
  %0 = load ptr, ptr %impl_.i.i, align 8
  %cmp.i.not.i.i.not = icmp eq ptr %0, null
  br i1 %cmp.i.not.i.i.not, label %land.lhs.true, label %if.end

land.lhs.true:                                    ; preds = %entry
  %ptr_.i.i = getelementptr inbounds i8, ptr %this, i64 128
  %1 = load ptr, ptr %ptr_.i.i, align 8
  %closing.i = getelementptr inbounds i8, ptr %1, i64 3
  %2 = load i8, ptr %closing.i, align 1
  %tobool.i.not = icmp eq i8 %2, 0
  br i1 %tobool.i.not, label %land.lhs.true3, label %if.end

land.lhs.true3:                                   ; preds = %land.lhs.true
  %waiting_for_callbacks = getelementptr inbounds i8, ptr %1, i64 4
  %3 = load i8, ptr %waiting_for_callbacks, align 4
  %cmp = icmp eq i8 %3, 0
  br i1 %cmp, label %if.then, label %if.end

if.then:                                          ; preds = %land.lhs.true3
  %listening = getelementptr inbounds i8, ptr %1, i64 2
  store i8 0, ptr %listening, align 2
  %4 = load ptr, ptr %ptr_.i.i, align 8
  %waiting_for_callbacks9 = getelementptr inbounds i8, ptr %4, i64 4
  store i8 1, ptr %waiting_for_callbacks9, align 4
  br label %if.end

if.end:                                           ; preds = %if.then, %land.lhs.true3, %land.lhs.true, %entry
  %ptr_.i.i.i = getelementptr inbounds i8, ptr %this, i64 128
  %5 = load ptr, ptr %ptr_.i.i.i, align 8
  %closing.i.i = getelementptr inbounds i8, ptr %5, i64 3
  %6 = load i8, ptr %closing.i.i, align 1
  %tobool.i.i = icmp eq i8 %6, 0
  %_M_element_count.i.i.i.i = getelementptr inbounds i8, ptr %this, i64 1264
  %7 = load i64, ptr %_M_element_count.i.i.i.i, align 8
  %cmp.i.i.i = icmp eq i64 %7, 0
  %or.cond.i = select i1 %tobool.i.i, i1 %cmp.i.i.i, i1 false
  br i1 %or.cond.i, label %land.lhs.true3.i, label %_ZN4node4quic8Endpoint12MaybeDestroyEv.exit

land.lhs.true3.i:                                 ; preds = %if.end
  %pending_callbacks.i = getelementptr inbounds i8, ptr %5, i64 8
  %8 = load i64, ptr %pending_callbacks.i, align 8
  %cmp.i = icmp eq i64 %8, 0
  br i1 %cmp.i, label %land.lhs.true5.i, label %_ZN4node4quic8Endpoint12MaybeDestroyEv.exit

land.lhs.true5.i:                                 ; preds = %land.lhs.true3.i
  %listening.i = getelementptr inbounds i8, ptr %5, i64 2
  %9 = load i8, ptr %listening.i, align 2
  %cmp8.i = icmp eq i8 %9, 0
  br i1 %cmp8.i, label %if.then.i, label %_ZN4node4quic8Endpoint12MaybeDestroyEv.exit

if.then.i:                                        ; preds = %land.lhs.true5.i
  tail call void @_ZN4node4quic8Endpoint7DestroyENS1_12CloseContextEi(ptr noundef nonnull align 8 dereferenceable(1520) %this, i32 noundef 0, i32 noundef 0)
  br label %_ZN4node4quic8Endpoint12MaybeDestroyEv.exit

_ZN4node4quic8Endpoint12MaybeDestroyEv.exit:      ; preds = %if.end, %land.lhs.true3.i, %land.lhs.true5.i, %if.then.i
  ret void
}